; ModuleID = '38/1228.c'
source_filename = "38/1228.c"
target datalayout = "e-m:e-p270:32:32-p271:32:32-p272:64:64-i64:64-f80:128-n8:16:32:64-S128"
target triple = "x86_64-pc-linux-gnu"

@.str = private unnamed_addr constant [3 x i8] c"%d\00", align 1
@.str.1 = private unnamed_addr constant [4 x i8] c"%lf\00", align 1
@.str.2 = private unnamed_addr constant [7 x i8] c"%.5lf\0A\00", align 1

; Function Attrs: noinline nounwind uwtable
define dso_local i32 @main(i32 %0, i8** %1) #0 {
  %3 = alloca i32, align 4
  %4 = alloca i32, align 4
  %5 = alloca i8**, align 8
  %6 = alloca i32, align 4
  %7 = alloca i32, align 4
  %8 = alloca i32, align 4
  %9 = alloca [1000 x i32], align 16
  %10 = alloca [1000 x double], align 16
  %11 = alloca [1000 x double], align 16
  %12 = alloca [1000 x double], align 16
  %13 = alloca [1000 x double], align 16
  %14 = alloca [1000 x double], align 16
  store i32 0, i32* %3, align 4
  store i32 %0, i32* %4, align 4
  store i8** %1, i8*** %5, align 8
  %15 = call i32 (i8*, ...) @__isoc99_scanf(i8* getelementptr inbounds ([3 x i8], [3 x i8]* @.str, i64 0, i64 0), i32* %6)
  %16 = bitcast [1000 x double]* %11 to i8*
  call void @llvm.memset.p0i8.i64(i8* align 16 %16, i8 0, i64 8000, i1 false)
  %17 = bitcast [1000 x double]* %12 to i8*
  call void @llvm.memset.p0i8.i64(i8* align 16 %17, i8 0, i64 8000, i1 false)
  %18 = bitcast [1000 x double]* %13 to i8*
  call void @llvm.memset.p0i8.i64(i8* align 16 %18, i8 0, i64 8000, i1 false)
  %19 = bitcast [1000 x double]* %14 to i8*
  call void @llvm.memset.p0i8.i64(i8* align 16 %19, i8 0, i64 8000, i1 false)
  store i32 0, i32* %7, align 4
  br label %20

20:                                               ; preds = %135, %2
  %21 = load i32, i32* %7, align 4
  %22 = load i32, i32* %6, align 4
  %23 = icmp slt i32 %21, %22
  br i1 %23, label %24, label %138

24:                                               ; preds = %20
  %25 = load i32, i32* %7, align 4
  %26 = sext i32 %25 to i64
  %27 = getelementptr inbounds [1000 x i32], [1000 x i32]* %9, i64 0, i64 %26
  %28 = call i32 (i8*, ...) @__isoc99_scanf(i8* getelementptr inbounds ([3 x i8], [3 x i8]* @.str, i64 0, i64 0), i32* %27)
  store i32 0, i32* %8, align 4
  br label %29

29:                                               ; preds = %41, %24
  %30 = load i32, i32* %8, align 4
  %31 = load i32, i32* %7, align 4
  %32 = sext i32 %31 to i64
  %33 = getelementptr inbounds [1000 x i32], [1000 x i32]* %9, i64 0, i64 %32
  %34 = load i32, i32* %33, align 4
  %35 = icmp slt i32 %30, %34
  br i1 %35, label %36, label %44

36:                                               ; preds = %29
  %37 = load i32, i32* %8, align 4
  %38 = sext i32 %37 to i64
  %39 = getelementptr inbounds [1000 x double], [1000 x double]* %10, i64 0, i64 %38
  %40 = call i32 (i8*, ...) @__isoc99_scanf(i8* getelementptr inbounds ([4 x i8], [4 x i8]* @.str.1, i64 0, i64 0), double* %39)
  br label %41

41:                                               ; preds = %36
  %42 = load i32, i32* %8, align 4
  %43 = add nsw i32 %42, 1
  store i32 %43, i32* %8, align 4
  br label %29

44:                                               ; preds = %29
  store i32 0, i32* %8, align 4
  br label %45

45:                                               ; preds = %65, %44
  %46 = load i32, i32* %8, align 4
  %47 = load i32, i32* %7, align 4
  %48 = sext i32 %47 to i64
  %49 = getelementptr inbounds [1000 x i32], [1000 x i32]* %9, i64 0, i64 %48
  %50 = load i32, i32* %49, align 4
  %51 = icmp slt i32 %46, %50
  br i1 %51, label %52, label %68

52:                                               ; preds = %45
  %53 = load i32, i32* %7, align 4
  %54 = sext i32 %53 to i64
  %55 = getelementptr inbounds [1000 x double], [1000 x double]* %11, i64 0, i64 %54
  %56 = load double, double* %55, align 8
  %57 = load i32, i32* %8, align 4
  %58 = sext i32 %57 to i64
  %59 = getelementptr inbounds [1000 x double], [1000 x double]* %10, i64 0, i64 %58
  %60 = load double, double* %59, align 8
  %61 = fadd double %56, %60
  %62 = load i32, i32* %7, align 4
  %63 = sext i32 %62 to i64
  %64 = getelementptr inbounds [1000 x double], [1000 x double]* %11, i64 0, i64 %63
  store double %61, double* %64, align 8
  br label %65

65:                                               ; preds = %52
  %66 = load i32, i32* %8, align 4
  %67 = add nsw i32 %66, 1
  store i32 %67, i32* %8, align 4
  br label %45

68:                                               ; preds = %45
  %69 = load i32, i32* %7, align 4
  %70 = sext i32 %69 to i64
  %71 = getelementptr inbounds [1000 x double], [1000 x double]* %11, i64 0, i64 %70
  %72 = load double, double* %71, align 8
  %73 = load i32, i32* %7, align 4
  %74 = sext i32 %73 to i64
  %75 = getelementptr inbounds [1000 x i32], [1000 x i32]* %9, i64 0, i64 %74
  %76 = load i32, i32* %75, align 4
  %77 = sitofp i32 %76 to double
  %78 = fdiv double %72, %77
  %79 = load i32, i32* %7, align 4
  %80 = sext i32 %79 to i64
  %81 = getelementptr inbounds [1000 x double], [1000 x double]* %12, i64 0, i64 %80
  store double %78, double* %81, align 8
  store i32 0, i32* %8, align 4
  br label %82

82:                                               ; preds = %131, %68
  %83 = load i32, i32* %8, align 4
  %84 = load i32, i32* %7, align 4
  %85 = sext i32 %84 to i64
  %86 = getelementptr inbounds [1000 x i32], [1000 x i32]* %9, i64 0, i64 %85
  %87 = load i32, i32* %86, align 4
  %88 = icmp slt i32 %83, %87
  br i1 %88, label %89, label %134

89:                                               ; preds = %82
  %90 = load i32, i32* %7, align 4
  %91 = sext i32 %90 to i64
  %92 = getelementptr inbounds [1000 x double], [1000 x double]* %13, i64 0, i64 %91
  %93 = load double, double* %92, align 8
  %94 = load i32, i32* %8, align 4
  %95 = sext i32 %94 to i64
  %96 = getelementptr inbounds [1000 x double], [1000 x double]* %10, i64 0, i64 %95
  %97 = load double, double* %96, align 8
  %98 = load i32, i32* %7, align 4
  %99 = sext i32 %98 to i64
  %100 = getelementptr inbounds [1000 x double], [1000 x double]* %12, i64 0, i64 %99
  %101 = load double, double* %100, align 8
  %102 = fsub double %97, %101
  %103 = load i32, i32* %8, align 4
  %104 = sext i32 %103 to i64
  %105 = getelementptr inbounds [1000 x double], [1000 x double]* %10, i64 0, i64 %104
  %106 = load double, double* %105, align 8
  %107 = load i32, i32* %7, align 4
  %108 = sext i32 %107 to i64
  %109 = getelementptr inbounds [1000 x double], [1000 x double]* %12, i64 0, i64 %108
  %110 = load double, double* %109, align 8
  %111 = fsub double %106, %110
  %112 = fmul double %102, %111
  %113 = fadd double %93, %112
  %114 = load i32, i32* %7, align 4
  %115 = sext i32 %114 to i64
  %116 = getelementptr inbounds [1000 x double], [1000 x double]* %13, i64 0, i64 %115
  store double %113, double* %116, align 8
  %117 = load i32, i32* %7, align 4
  %118 = sext i32 %117 to i64
  %119 = getelementptr inbounds [1000 x double], [1000 x double]* %13, i64 0, i64 %118
  %120 = load double, double* %119, align 8
  %121 = load i32, i32* %7, align 4
  %122 = sext i32 %121 to i64
  %123 = getelementptr inbounds [1000 x i32], [1000 x i32]* %9, i64 0, i64 %122
  %124 = load i32, i32* %123, align 4
  %125 = sitofp i32 %124 to double
  %126 = fdiv double %120, %125
  %127 = call double @sqrt(double %126) #4
  %128 = load i32, i32* %7, align 4
  %129 = sext i32 %128 to i64
  %130 = getelementptr inbounds [1000 x double], [1000 x double]* %14, i64 0, i64 %129
  store double %127, double* %130, align 8
  br label %131

131:                                              ; preds = %89
  %132 = load i32, i32* %8, align 4
  %133 = add nsw i32 %132, 1
  store i32 %133, i32* %8, align 4
  br label %82

134:                                              ; preds = %82
  br label %135

135:                                              ; preds = %134
  %136 = load i32, i32* %7, align 4
  %137 = add nsw i32 %136, 1
  store i32 %137, i32* %7, align 4
  br label %20

138:                                              ; preds = %20
  store i32 0, i32* %7, align 4
  br label %139

139:                                              ; preds = %149, %138
  %140 = load i32, i32* %7, align 4
  %141 = load i32, i32* %6, align 4
  %142 = icmp slt i32 %140, %141
  br i1 %142, label %143, label %152

143:                                              ; preds = %139
  %144 = load i32, i32* %7, align 4
  %145 = sext i32 %144 to i64
  %146 = getelementptr inbounds [1000 x double], [1000 x double]* %14, i64 0, i64 %145
  %147 = load double, double* %146, align 8
  %148 = call i32 (i8*, ...) @printf(i8* getelementptr inbounds ([7 x i8], [7 x i8]* @.str.2, i64 0, i64 0), double %147)
  br label %149

149:                                              ; preds = %143
  %150 = load i32, i32* %7, align 4
  %151 = add nsw i32 %150, 1
  store i32 %151, i32* %7, align 4
  br label %139

152:                                              ; preds = %139
  ret i32 0
}

declare dso_local i32 @__isoc99_scanf(i8*, ...) #1

; Function Attrs: argmemonly nounwind willreturn
declare void @llvm.memset.p0i8.i64(i8* nocapture writeonly, i8, i64, i1 immarg) #2

; Function Attrs: nounwind
declare dso_local double @sqrt(double) #3

declare dso_local i32 @printf(i8*, ...) #1


!llvm.module.flags = !{!0}
!llvm.ident = !{!1}

!0 = !{i32 1, !"wchar_size", i32 4}
!1 = !{!"clang version 10.0.0-4ubuntu1 "}
